; ModuleID = 'source-C-CXX/28/1735.cpp'
source_filename = "source-C-CXX/28/1735.cpp"
target datalayout = "e-m:e-p270:32:32-p271:32:32-p272:64:64-i64:64-f80:128-n8:16:32:64-S128"
target triple = "x86_64-pc-linux-gnu"

%"class.std::ios_base::Init" = type { i8 }
%"class.std::basic_istream" = type { i32 (...)**, i64, %"class.std::basic_ios" }
%"class.std::basic_ios" = type { %"class.std::ios_base", %"class.std::basic_ostream"*, i8, i8, %"class.std::basic_streambuf"*, %"class.std::ctype"*, %"class.std::num_put"*, %"class.std::num_get"* }
%"class.std::ios_base" = type { i32 (...)**, i64, i64, i32, i32, i32, %"struct.std::ios_base::_Callback_list"*, %"struct.std::ios_base::_Words", [8 x %"struct.std::ios_base::_Words"], i32, %"struct.std::ios_base::_Words"*, %"class.std::locale" }
%"struct.std::ios_base::_Callback_list" = type { %"struct.std::ios_base::_Callback_list"*, void (i32, %"class.std::ios_base"*, i32)*, i32, i32 }
%"struct.std::ios_base::_Words" = type { i8*, i64 }
%"class.std::locale" = type { %"class.std::locale::_Impl"* }
%"class.std::locale::_Impl" = type { i32, %"class.std::locale::facet"**, i64, %"class.std::locale::facet"**, i8** }
%"class.std::locale::facet" = type <{ i32 (...)**, i32, [4 x i8] }>
%"class.std::basic_ostream" = type { i32 (...)**, %"class.std::basic_ios" }
%"class.std::basic_streambuf" = type { i32 (...)**, i8*, i8*, i8*, i8*, i8*, i8*, %"class.std::locale" }
%"class.std::ctype" = type <{ %"class.std::locale::facet.base", [4 x i8], %struct.__locale_struct*, i8, [7 x i8], i32*, i32*, i16*, i8, [256 x i8], [256 x i8], i8, [6 x i8] }>
%"class.std::locale::facet.base" = type <{ i32 (...)**, i32 }>
%struct.__locale_struct = type { [13 x %struct.__locale_data*], i16*, i32*, i32*, [13 x i8*] }
%struct.__locale_data = type opaque
%"class.std::num_put" = type { %"class.std::locale::facet.base", [4 x i8] }
%"class.std::num_get" = type { %"class.std::locale::facet.base", [4 x i8] }

@_ZStL8__ioinit = internal global %"class.std::ios_base::Init" zeroinitializer, align 1
@__dso_handle = external hidden global i8
@_ZSt3cin = external global %"class.std::basic_istream", align 8
@.str = private unnamed_addr constant [6 x i8] c"%.3f\0A\00", align 1
@llvm.global_ctors = appending global [1 x { i32, void ()*, i8* }] [{ i32, void ()*, i8* } { i32 65535, void ()* @_GLOBAL__sub_I_1735.cpp, i8* null }]

declare void @_ZNSt8ios_base4InitC1Ev(%"class.std::ios_base::Init"* nonnull align 1 dereferenceable(1)) unnamed_addr #0

; Function Attrs: nounwind
declare void @_ZNSt8ios_base4InitD1Ev(%"class.std::ios_base::Init"* nonnull align 1 dereferenceable(1)) unnamed_addr #1

; Function Attrs: nofree nounwind
declare i32 @__cxa_atexit(void (i8*)*, i8*, i8*) local_unnamed_addr #2

; Function Attrs: mustprogress norecurse sspstrong uwtable
define dso_local i32 @main(i32 %0, i8** nocapture readnone %1) local_unnamed_addr #3 {
  %3 = alloca i32, align 4
  %4 = alloca i32, align 4
  %5 = bitcast i32* %3 to i8*
  call void @llvm.lifetime.start.p0i8(i64 4, i8* nonnull %5) #7
  %6 = call nonnull align 8 dereferenceable(16) %"class.std::basic_istream"* @_ZNSirsERi(%"class.std::basic_istream"* nonnull align 8 dereferenceable(16) @_ZSt3cin, i32* nonnull align 4 dereferenceable(4) %3)
  %7 = bitcast i32* %4 to i8*
  %8 = load i32, i32* %3, align 4, !tbaa !5
  %9 = icmp sgt i32 %8, 0
  br i1 %9, label %11, label %10

10:                                               ; preds = %33, %2
  call void @llvm.lifetime.end.p0i8(i64 4, i8* nonnull %5) #7
  ret i32 0

11:                                               ; preds = %2, %33
  %12 = phi i32 [ %36, %33 ], [ 0, %2 ]
  call void @llvm.lifetime.start.p0i8(i64 4, i8* nonnull %7) #7
  %13 = call nonnull align 8 dereferenceable(16) %"class.std::basic_istream"* @_ZNSirsERi(%"class.std::basic_istream"* nonnull align 8 dereferenceable(16) @_ZSt3cin, i32* nonnull align 4 dereferenceable(4) %4)
  %14 = load i32, i32* %4, align 4, !tbaa !5
  %15 = icmp slt i32 %14, 1
  br i1 %15, label %33, label %16

16:                                               ; preds = %11
  %17 = and i32 %14, 1
  %18 = icmp eq i32 %14, 1
  br i1 %18, label %21, label %19

19:                                               ; preds = %16
  %20 = and i32 %14, -2
  br label %39

21:                                               ; preds = %39, %16
  %22 = phi double [ undef, %16 ], [ %54, %39 ]
  %23 = phi double [ 0.000000e+00, %16 ], [ %54, %39 ]
  %24 = phi i32 [ 1, %16 ], [ %49, %39 ]
  %25 = phi i32 [ 2, %16 ], [ %55, %39 ]
  %26 = icmp eq i32 %17, 0
  br i1 %26, label %33, label %27

27:                                               ; preds = %21
  %28 = sitofp i32 %25 to float
  %29 = sitofp i32 %24 to float
  %30 = fdiv float %28, %29
  %31 = fpext float %30 to double
  %32 = fadd double %23, %31
  br label %33

33:                                               ; preds = %27, %21, %11
  %34 = phi double [ 0.000000e+00, %11 ], [ %22, %21 ], [ %32, %27 ]
  %35 = call i32 (i8*, ...) @printf(i8* nonnull dereferenceable(1) getelementptr inbounds ([6 x i8], [6 x i8]* @.str, i64 0, i64 0), double %34)
  call void @llvm.lifetime.end.p0i8(i64 4, i8* nonnull %7) #7
  %36 = add nuw nsw i32 %12, 1
  %37 = load i32, i32* %3, align 4, !tbaa !5
  %38 = icmp slt i32 %36, %37
  br i1 %38, label %11, label %10, !llvm.loop !9

39:                                               ; preds = %39, %19
  %40 = phi double [ 0.000000e+00, %19 ], [ %54, %39 ]
  %41 = phi i32 [ 1, %19 ], [ %49, %39 ]
  %42 = phi i32 [ 2, %19 ], [ %55, %39 ]
  %43 = phi i32 [ %20, %19 ], [ %56, %39 ]
  %44 = sitofp i32 %42 to float
  %45 = sitofp i32 %41 to float
  %46 = fdiv float %44, %45
  %47 = fpext float %46 to double
  %48 = fadd double %40, %47
  %49 = add nsw i32 %41, %42
  %50 = sitofp i32 %49 to float
  %51 = sitofp i32 %42 to float
  %52 = fdiv float %50, %51
  %53 = fpext float %52 to double
  %54 = fadd double %48, %53
  %55 = add nsw i32 %42, %49
  %56 = add i32 %43, -2
  %57 = icmp eq i32 %56, 0
  br i1 %57, label %21, label %39, !llvm.loop !11
}

; Function Attrs: argmemonly mustprogress nofree nosync nounwind willreturn
declare void @llvm.lifetime.start.p0i8(i64 immarg, i8* nocapture) #4

declare nonnull align 8 dereferenceable(16) %"class.std::basic_istream"* @_ZNSirsERi(%"class.std::basic_istream"* nonnull align 8 dereferenceable(16), i32* nonnull align 4 dereferenceable(4)) local_unnamed_addr #0

; Function Attrs: argmemonly mustprogress nofree nosync nounwind willreturn
declare void @llvm.lifetime.end.p0i8(i64 immarg, i8* nocapture) #4

; Function Attrs: nofree nounwind
declare noundef i32 @printf(i8* nocapture noundef readonly, ...) local_unnamed_addr #5

; Function Attrs: sspstrong uwtable
define internal void @_GLOBAL__sub_I_1735.cpp() #6 section ".text.startup" {
  tail call void @_ZNSt8ios_base4InitC1Ev(%"class.std::ios_base::Init"* nonnull align 1 dereferenceable(1) @_ZStL8__ioinit)
  %1 = tail call i32 @__cxa_atexit(void (i8*)* bitcast (void (%"class.std::ios_base::Init"*)* @_ZNSt8ios_base4InitD1Ev to void (i8*)*), i8* getelementptr inbounds (%"class.std::ios_base::Init", %"class.std::ios_base::Init"* @_ZStL8__ioinit, i64 0, i32 0), i8* nonnull @__dso_handle) #7
  ret void
}


!llvm.module.flags = !{!0, !1, !2, !3}
!llvm.ident = !{!4}

!0 = !{i32 1, !"wchar_size", i32 4}
!1 = !{i32 7, !"PIC Level", i32 2}
!2 = !{i32 7, !"PIE Level", i32 2}
!3 = !{i32 7, !"uwtable", i32 1}
!4 = !{!"clang version 13.0.0"}
!5 = !{!6, !6, i64 0}
!6 = !{!"int", !7, i64 0}
!7 = !{!"omnipotent char", !8, i64 0}
!8 = !{!"Simple C++ TBAA"}
!9 = distinct !{!9, !10}
!10 = !{!"llvm.loop.mustprogress"}
!11 = distinct !{!11, !10}
